target datalayout = "e-m:e-p270:32:32-p271:32:32-p272:64:64-i64:64-i128:128-f80:128-n8:16:32:64-S128"
target triple = "x86_64-pc-linux-gnu"

%"class.Luau::AstStat.base" = type { %"class.Luau::AstNode.base", i8 }
%"class.Luau::AstNode.base" = type <{ ptr, i32, %"struct.Luau::Location" }>
%"struct.Luau::Location" = type { %"struct.Luau::Position", %"struct.Luau::Position" }
%"struct.Luau::Position" = type { i32, i32 }
%"struct.Luau::AstName" = type { ptr }
%"class.std::optional.320" = type { %"struct.std::_Optional_base.321" }
%"struct.std::_Optional_base.321" = type { %"struct.std::_Optional_payload.323" }
%"struct.std::_Optional_payload.323" = type { %"struct.std::_Optional_payload_base.base.325", [7 x i8] }
%"struct.std::_Optional_payload_base.base.325" = type <{ %"union.std::_Optional_payload_base<Luau::AstName>::_Storage", i8 }>
%"union.std::_Optional_payload_base<Luau::AstName>::_Storage" = type { %"struct.Luau::AstName" }
%"class.Luau::AstStatDeclareClass" = type { %"class.Luau::AstStat.base", %"struct.Luau::AstName", %"class.std::optional.320", %"struct.Luau::AstArray.578", ptr }
%"struct.Luau::AstArray.578" = type { ptr, i64 }
%"struct.Luau::AstDeclaredClassProp" = type <{ %"struct.Luau::AstName", %"struct.Luau::Location", ptr, i8, [3 x i8], %"struct.Luau::Location", [4 x i8] }>

; Function Attrs: mustprogress nounwind uwtable
define linkonce_odr dso_local noundef ptr @_ZNK4Luau8AstArrayINS_20AstDeclaredClassPropEE3endEv(ptr noundef nonnull align 8 dereferenceable(16) %0) #2 comdat align 2 {
  %2 = alloca ptr, align 8
  store ptr %0, ptr %2, align 8, !tbaa !752
  %3 = load ptr, ptr %2, align 8
  %4 = getelementptr inbounds nuw %"struct.Luau::AstArray.578", ptr %3, i32 0, i32 0
  %5 = load ptr, ptr %4, align 8, !tbaa !1047
  %6 = getelementptr inbounds nuw %"struct.Luau::AstArray.578", ptr %3, i32 0, i32 1
  %7 = load i64, ptr %6, align 8, !tbaa !1049
  %8 = getelementptr inbounds nuw %"struct.Luau::AstDeclaredClassProp", ptr %5, i64 %7
  ret ptr %8
}

; Function Attrs: mustprogress nounwind uwtable
define linkonce_odr dso_local noundef ptr @_ZNK4Luau8AstArrayINS_20AstDeclaredClassPropEE5beginEv(ptr noundef nonnull align 8 dereferenceable(16) %0) #2 comdat align 2 {
  %2 = alloca ptr, align 8
  store ptr %0, ptr %2, align 8, !tbaa !752
  %3 = load ptr, ptr %2, align 8
  %4 = getelementptr inbounds nuw %"struct.Luau::AstArray.578", ptr %3, i32 0, i32 0
  %5 = load ptr, ptr %4, align 8, !tbaa !1047
  ret ptr %5
}

; Function Attrs: mustprogress uwtable
define dso_local void @_ZN4Luau12TypeChecker25visitEPNS_19AstStatDeclareClassE(ptr noundef nonnull align 8 dereferenceable(784) %0, ptr noundef %1) #7 align 2 {
  %3 = alloca ptr, align 8
  %4 = alloca ptr, align 8
  %5 = alloca ptr, align 8
  %6 = alloca ptr, align 8
  %7 = alloca ptr, align 8
  %8 = alloca ptr, align 8
  store ptr %0, ptr %3, align 8, !tbaa !131
  store ptr %1, ptr %4, align 8, !tbaa !632
  %9 = load ptr, ptr %3, align 8
  call void @llvm.lifetime.start.p0(i64 8, ptr %5) #4
  %10 = load ptr, ptr %4, align 8, !tbaa !632
  %11 = getelementptr inbounds nuw %"class.Luau::AstStatDeclareClass", ptr %10, i32 0, i32 3
  store ptr %11, ptr %5, align 8, !tbaa !752
  call void @llvm.lifetime.start.p0(i64 8, ptr %6) #4
  %12 = load ptr, ptr %5, align 8, !tbaa !752
  %13 = call noundef ptr @_ZNK4Luau8AstArrayINS_20AstDeclaredClassPropEE5beginEv(ptr noundef nonnull align 8 dereferenceable(16) %12)
  store ptr %13, ptr %6, align 8, !tbaa !754
  call void @llvm.lifetime.start.p0(i64 8, ptr %7) #4
  %14 = load ptr, ptr %5, align 8, !tbaa !752
  %15 = call noundef ptr @_ZNK4Luau8AstArrayINS_20AstDeclaredClassPropEE3endEv(ptr noundef nonnull align 8 dereferenceable(16) %14)
  store ptr %15, ptr %7, align 8, !tbaa !754
  br label %16

16:                                               ; preds = %26, %2
  %17 = load ptr, ptr %6, align 8, !tbaa !754
  %18 = load ptr, ptr %7, align 8, !tbaa !754
  %19 = icmp ne ptr %17, %18
  br i1 %19, label %21, label %20

20:                                               ; preds = %16
  call void @llvm.lifetime.end.p0(i64 8, ptr %7) #4
  call void @llvm.lifetime.end.p0(i64 8, ptr %6) #4
  call void @llvm.lifetime.end.p0(i64 8, ptr %5) #4
  br label %29

21:                                               ; preds = %16
  call void @llvm.lifetime.start.p0(i64 8, ptr %8) #4
  %22 = load ptr, ptr %6, align 8, !tbaa !754
  store ptr %22, ptr %8, align 8, !tbaa !754
  %23 = load ptr, ptr %8, align 8, !tbaa !754
  %24 = getelementptr inbounds nuw %"struct.Luau::AstDeclaredClassProp", ptr %23, i32 0, i32 2
  %25 = load ptr, ptr %24, align 8, !tbaa !756
  call void @_ZN4Luau12TypeChecker25visitEPNS_7AstTypeE(ptr noundef nonnull align 8 dereferenceable(784) %9, ptr noundef %25)
  call void @llvm.lifetime.end.p0(i64 8, ptr %8) #4
  br label %26

26:                                               ; preds = %21
  %27 = load ptr, ptr %6, align 8, !tbaa !754
  %28 = getelementptr inbounds nuw %"struct.Luau::AstDeclaredClassProp", ptr %27, i32 1
  store ptr %28, ptr %6, align 8, !tbaa !754
  br label %16

29:                                               ; preds = %20
  ret void
}