; Function Attrs: mustprogress uwtable
define dso_local void @_ZN4Luau12TypeChecker25visitEPNS_19AstStatDeclareClassE(ptr noundef nonnull align 8 dereferenceable(784) %0, ptr noundef readonly captures(none) %1) local_unnamed_addr #5 align 2 {
  %3 = getelementptr inbounds nuw i8, ptr %1, i64 56
  %4 = load ptr, ptr %3, align 8, !tbaa !467
  %5 = getelementptr inbounds nuw i8, ptr %1, i64 64
  %6 = load i64, ptr %5, align 8, !tbaa !470
  %7 = getelementptr inbounds nuw %"struct.Luau::AstDeclaredClassProp", ptr %4, i64 %6
  %.not9 = icmp eq i64 %6, 0
  br i1 %.not9, label %._crit_edge, label %.lr.ph

._crit_edge:                                      ; preds = %.lr.ph, %2
  ret void

.lr.ph:                                           ; preds = %2, %.lr.ph
  %.010 = phi ptr [ %10, %.lr.ph ], [ %4, %2 ]
  %8 = getelementptr inbounds nuw i8, ptr %.010, i64 24
  %9 = load ptr, ptr %8, align 8, !tbaa !471
  tail call void @_ZN4Luau12TypeChecker25visitEPNS_7AstTypeE(ptr noundef nonnull align 8 dereferenceable(784) %0, ptr noundef %9)
  %10 = getelementptr inbounds nuw i8, ptr %.010, i64 56
  %.not = icmp eq ptr %10, %7
  br i1 %.not, label %._crit_edge, label %.lr.ph
}